target datalayout = "e-m:e-p270:32:32-p271:32:32-p272:64:64-i64:64-i128:128-f80:128-n8:16:32:64-S128"
target triple = "x86_64-pc-linux-gnu"

%union.pthread_mutex_t = type { %struct.__pthread_mutex_s }
%struct.__pthread_mutex_s = type { i32, i32, i32, i32, i32, i16, i16, %struct.__pthread_internal_list }
%struct.__pthread_internal_list = type { ptr, ptr }
%struct.WOLFSSL_SESSION = type { i32, i32, %struct.wolfSSL_RefWithMutex, [32 x i8], i8, ptr, i8, i32, i32, [32 x i8], i8, [48 x i8], i16, i8, i8, i16, [20 x i8], i16, i8 }
%struct.wolfSSL_RefWithMutex = type { %union.pthread_mutex_t, i32 }
%struct.WOLFSSL_BUFFER_INFO = type { ptr, i32 }
%struct.WOLFSSL = type <{ ptr, ptr, ptr, ptr, [48 x i8], [48 x i8], ptr, ptr, ptr, ptr, ptr, ptr, ptr, ptr, ptr, ptr, ptr, ptr, ptr, i32, [4 x i8], %struct.WOLFSSL_CIPHER, ptr, %struct.Ciphers, %struct.Ciphers, [8 x i8], %struct.Buffers, ptr, ptr, %struct.WOLFSSL_ALERT_HISTORY, %struct.WOLFSSL_ALERT, i32, i32, i32, i32, i32, i32, i32, i16, [2 x i8], i32, i8, %struct.RecordLayerHeader, %struct.MsgsReceived, %struct.ProtocolVersion, %struct.ProtocolVersion, %struct.CipherSpecs, [2 x i8], %struct.Keys, %struct.Options, ptr, i8, i8, i16, [10 x i16], i8, i8, i16, i16, [38 x i8], i32, i32, [4 x i8], ptr, i8, i8, [6 x i8], ptr, ptr, i16, i8, i8, i32, i8, [3 x i8], i32, %struct.OneTimeAuth, ptr }>
%struct.WOLFSSL_CIPHER = type { i8, i8, ptr }
%struct.Ciphers = type { ptr, ptr, ptr, ptr, i8, i8 }
%struct.Buffers = type { %struct.bufferStatic, %struct.bufferStatic, %struct.WOLFSSL_BUFFER_INFO, %struct.WOLFSSL_BUFFER_INFO, %struct.WOLFSSL_BUFFER_INFO, %struct.WOLFSSL_BUFFER_INFO, i32, i32, i8, i8, i8, i8, %struct.WOLFSSL_BUFFER_INFO, %struct.WOLFSSL_BUFFER_INFO, %struct.WOLFSSL_BUFFER_INFO, %struct.WOLFSSL_BUFFER_INFO, ptr, ptr, ptr, i8, i8, i32, i32, ptr, i32, [1 x ptr] }
%struct.bufferStatic = type { [5 x i8], ptr, i32, i32, i32, i8, i8 }
%struct.WOLFSSL_ALERT_HISTORY = type { %struct.WOLFSSL_ALERT, %struct.WOLFSSL_ALERT }
%struct.WOLFSSL_ALERT = type { i32, i32 }
%struct.RecordLayerHeader = type { i8, i8, i8, [2 x i8] }
%struct.MsgsReceived = type { i32 }
%struct.ProtocolVersion = type { i8, i8 }
%struct.CipherSpecs = type { i16, i16, i16, i16, i8, i8, i8, i8, i8, i8, i8, i8 }
%struct.Keys = type { [64 x i8], [64 x i8], [32 x i8], [32 x i8], [16 x i8], [16 x i8], [8 x i8], [12 x i8], [12 x i8], i32, i32, i32, i32, i32, i32, i8, i8, i8, i8 }
%struct.Options = type { i64, i64, i8, i8, i8, i8, i8, i8, i8, i8, i8, i8, i8, i8, i8, i8, i8, i8, i8, i8, i8, i8, i8, i16, i16, i16, i16, i16, i8 }
%struct.OneTimeAuth = type { ptr, i8 }

; Function Attrs: nounwind uwtable
define ptr @wolfSSL_get_session(ptr noundef %0) #0 {
  %2 = alloca ptr, align 8
  %3 = alloca ptr, align 8
  %4 = alloca i32, align 4
  %5 = alloca ptr, align 8
  %6 = alloca i8, align 1
  %7 = alloca i32, align 4
  store ptr %0, ptr %3, align 8, !tbaa !61
  br label %8

8:                                                ; preds = %1
  br label %9

9:                                                ; preds = %8
  %10 = load ptr, ptr %3, align 8, !tbaa !61
  %11 = icmp ne ptr %10, null
  br i1 %11, label %12, label %89

12:                                               ; preds = %9
  %13 = load ptr, ptr %3, align 8, !tbaa !61
  %14 = getelementptr inbounds nuw %struct.WOLFSSL, ptr %13, i32 0, i32 49
  %15 = getelementptr inbounds nuw %struct.Options, ptr %14, i32 0, i32 1
  %16 = load i64, ptr %15, align 8
  %17 = lshr i64 %16, 4
  %18 = and i64 %17, 3
  %19 = trunc i64 %18 to i16
  %20 = zext i16 %19 to i32
  %21 = icmp eq i32 %20, 1
  br i1 %21, label %22, label %84

22:                                               ; preds = %12
  %23 = load ptr, ptr %3, align 8, !tbaa !61
  %24 = getelementptr inbounds nuw %struct.WOLFSSL, ptr %23, i32 0, i32 28
  %25 = load ptr, ptr %24, align 8, !tbaa !63
  %26 = icmp ne ptr %25, null
  br i1 %26, label %27, label %31

27:                                               ; preds = %22
  %28 = load ptr, ptr %3, align 8, !tbaa !61
  %29 = getelementptr inbounds nuw %struct.WOLFSSL, ptr %28, i32 0, i32 28
  %30 = load ptr, ptr %29, align 8, !tbaa !63
  store ptr %30, ptr %2, align 8
  br label %90

31:                                               ; preds = %22
  call void @llvm.lifetime.start.p0(i64 4, ptr %4) #9
  call void @llvm.lifetime.start.p0(i64 8, ptr %5) #9
  %32 = load ptr, ptr %3, align 8, !tbaa !61
  %33 = getelementptr inbounds nuw %struct.WOLFSSL, ptr %32, i32 0, i32 27
  %34 = load ptr, ptr %33, align 16, !tbaa !89
  %35 = getelementptr inbounds nuw %struct.WOLFSSL_SESSION, ptr %34, i32 0, i32 9
  %36 = getelementptr inbounds [32 x i8], ptr %35, i64 0, i64 0
  store ptr %36, ptr %5, align 8, !tbaa !21
  call void @llvm.lifetime.start.p0(i64 1, ptr %6) #9
  %37 = load ptr, ptr %3, align 8, !tbaa !61
  %38 = getelementptr inbounds nuw %struct.WOLFSSL, ptr %37, i32 0, i32 27
  %39 = load ptr, ptr %38, align 16, !tbaa !89
  %40 = getelementptr inbounds nuw %struct.WOLFSSL_SESSION, ptr %39, i32 0, i32 10
  %41 = load i8, ptr %40, align 4, !tbaa !55
  store i8 %41, ptr %6, align 1, !tbaa !20
  %42 = load ptr, ptr %3, align 8, !tbaa !61
  %43 = getelementptr inbounds nuw %struct.WOLFSSL, ptr %42, i32 0, i32 27
  %44 = load ptr, ptr %43, align 16, !tbaa !89
  %45 = getelementptr inbounds nuw %struct.WOLFSSL_SESSION, ptr %44, i32 0, i32 4
  %46 = load i8, ptr %45, align 8
  %47 = and i8 %46, 1
  %48 = icmp ne i8 %47, 0
  br i1 %48, label %49, label %55

49:                                               ; preds = %31
  %50 = load ptr, ptr %3, align 8, !tbaa !61
  %51 = getelementptr inbounds nuw %struct.WOLFSSL, ptr %50, i32 0, i32 27
  %52 = load ptr, ptr %51, align 16, !tbaa !89
  %53 = getelementptr inbounds nuw %struct.WOLFSSL_SESSION, ptr %52, i32 0, i32 3
  %54 = getelementptr inbounds [32 x i8], ptr %53, i64 0, i64 0
  store ptr %54, ptr %5, align 8, !tbaa !21
  store i8 32, ptr %6, align 1, !tbaa !20
  br label %55

55:                                               ; preds = %49, %31
  %56 = load ptr, ptr %3, align 8, !tbaa !61
  %57 = getelementptr inbounds nuw %struct.WOLFSSL, ptr %56, i32 0, i32 0
  %58 = load ptr, ptr %57, align 16, !tbaa !90
  %59 = load ptr, ptr %3, align 8, !tbaa !61
  %60 = getelementptr inbounds nuw %struct.WOLFSSL, ptr %59, i32 0, i32 27
  %61 = load ptr, ptr %60, align 16, !tbaa !89
  %62 = load ptr, ptr %5, align 8, !tbaa !21
  %63 = load i8, ptr %6, align 1, !tbaa !20
  %64 = load ptr, ptr %3, align 8, !tbaa !61
  %65 = getelementptr inbounds nuw %struct.WOLFSSL, ptr %64, i32 0, i32 27
  %66 = load ptr, ptr %65, align 16, !tbaa !89
  %67 = getelementptr inbounds nuw %struct.WOLFSSL_SESSION, ptr %66, i32 0, i32 6
  %68 = load i8, ptr %67, align 8, !tbaa !91
  %69 = zext i8 %68 to i32
  %70 = load ptr, ptr %3, align 8, !tbaa !61
  %71 = getelementptr inbounds nuw %struct.WOLFSSL, ptr %70, i32 0, i32 28
  %72 = call i32 @AddSessionToCache(ptr noundef %58, ptr noundef %61, ptr noundef %62, i8 noundef zeroext %63, ptr noundef null, i32 noundef %69, i16 noundef zeroext 0, ptr noundef %71)
  store i32 %72, ptr %4, align 4, !tbaa !7
  %73 = load i32, ptr %4, align 4, !tbaa !7
  %74 = icmp eq i32 %73, 0
  br i1 %74, label %75, label %79

75:                                               ; preds = %55
  %76 = load ptr, ptr %3, align 8, !tbaa !61
  %77 = getelementptr inbounds nuw %struct.WOLFSSL, ptr %76, i32 0, i32 28
  %78 = load ptr, ptr %77, align 8, !tbaa !63
  store ptr %78, ptr %2, align 8
  store i32 1, ptr %7, align 4
  br label %80

79:                                               ; preds = %55
  store i32 0, ptr %7, align 4
  br label %80

80:                                               ; preds = %79, %75
  call void @llvm.lifetime.end.p0(i64 1, ptr %6) #9
  call void @llvm.lifetime.end.p0(i64 8, ptr %5) #9
  call void @llvm.lifetime.end.p0(i64 4, ptr %4) #9
  %81 = load i32, ptr %7, align 4
  switch i32 %81, label %92 [
    i32 0, label %82
    i32 1, label %90
  ]

82:                                               ; preds = %80
  br label %83

83:                                               ; preds = %82
  br label %88

84:                                               ; preds = %12
  %85 = load ptr, ptr %3, align 8, !tbaa !61
  %86 = getelementptr inbounds nuw %struct.WOLFSSL, ptr %85, i32 0, i32 27
  %87 = load ptr, ptr %86, align 16, !tbaa !89
  store ptr %87, ptr %2, align 8
  br label %90

88:                                               ; preds = %83
  br label %89

89:                                               ; preds = %88, %9
  store ptr null, ptr %2, align 8
  br label %90

90:                                               ; preds = %89, %84, %80, %27
  %91 = load ptr, ptr %2, align 8
  ret ptr %91

92:                                               ; preds = %80
  unreachable
}