; Function Attrs: nounwind uwtable
define ptr @wolfSSL_get_session(ptr noundef captures(address_is_null) %0) local_unnamed_addr #0 {
  %.not = icmp eq ptr %0, null
  br i1 %.not, label %.thread, label %2

2:                                                ; preds = %1
  %3 = getelementptr inbounds nuw i8, ptr %0, i64 1024
  %4 = load i64, ptr %3, align 8
  %5 = and i64 %4, 48
  %6 = icmp eq i64 %5, 16
  br i1 %6, label %7, label %25

7:                                                ; preds = %2
  %8 = getelementptr inbounds nuw i8, ptr %0, i64 632
  %9 = load ptr, ptr %8, align 8, !tbaa !47
  %.not23 = icmp eq ptr %9, null
  br i1 %.not23, label %10, label %.thread

10:                                               ; preds = %7
  %11 = getelementptr inbounds nuw i8, ptr %0, i64 624
  %12 = load ptr, ptr %11, align 16, !tbaa !76
  %13 = getelementptr inbounds nuw i8, ptr %12, i64 148
  %14 = load i8, ptr %13, align 4, !tbaa !77
  %15 = getelementptr inbounds nuw i8, ptr %12, i64 88
  %16 = load i8, ptr %15, align 8
  %17 = and i8 %16, 1
  %.not24 = icmp eq i8 %17, 0
  %spec.select.v = select i1 %.not24, i64 116, i64 56
  %spec.select = getelementptr inbounds nuw i8, ptr %12, i64 %spec.select.v
  %spec.select25 = select i1 %.not24, i8 %14, i8 32
  %18 = getelementptr inbounds nuw i8, ptr %12, i64 104
  %19 = load i8, ptr %18, align 8, !tbaa !79
  %20 = zext i8 %19 to i32
  %21 = tail call i32 @AddSessionToCache(ptr poison, ptr noundef %12, ptr noundef nonnull %spec.select, i8 noundef zeroext %spec.select25, ptr poison, i32 noundef %20, i16 noundef zeroext 0, ptr noundef nonnull %8)
  %22 = icmp eq i32 %21, 0
  br i1 %22, label %23, label %.thread

23:                                               ; preds = %10
  %24 = load ptr, ptr %8, align 8, !tbaa !47
  br label %.thread

25:                                               ; preds = %2
  %26 = getelementptr inbounds nuw i8, ptr %0, i64 624
  %27 = load ptr, ptr %26, align 16, !tbaa !76
  br label %.thread

.thread:                                          ; preds = %10, %1, %23, %7, %25
  %.020 = phi ptr [ %24, %23 ], [ %27, %25 ], [ %9, %7 ], [ null, %1 ], [ null, %10 ]
  ret ptr %.020
}